Certificate:
    Data:
        Version: 3 (0x2)
        Serial Number:
            d1:b6:bf:af:06:17:8c:be
        Signature Algorithm: sha1WithRSAEncryption
        Issuer: C=US, ST=California, O=M2Crypto, CN=Heikki Toivonen
        Validity
            Not Before: Jul 28 04:31:41 2009 GMT
            Not After : Jul 26 04:31:41 2019 GMT
        Subject: C=US, ST=California, O=M2Crypto, CN=localhost
        Subject Public Key Info:
            Public Key Algorithm: rsaEncryption
            RSA Public Key: (1024 bit)
                Modulus (1024 bit):
                    00:d4:99:6f:33:3f:e6:ac:0a:34:d8:0e:45:97:f3:
                    2b:6a:50:2a:84:30:0a:52:9c:15:30:9f:05:29:3a:
                    21:f4:c1:c3:01:9e:2f:55:56:4e:35:ac:f1:16:1e:
                    26:8d:b5:26:b7:99:78:92:ea:1c:74:46:ab:41:12:
                    ef:cc:53:62:cc:59:5c:9e:c4:86:df:d9:25:35:55:
                    05:4b:16:ff:d9:90:e3:f4:51:b4:b4:fa:c5:98:4b:
                    60:f0:60:7f:14:4e:1e:dd:61:9b:22:a2:9c:21:17:
                    43:a3:cb:07:80:f5:75:59:9c:55:1c:fe:e0:66:d4:
                    70:77:5e:13:06:0c:05:c7:1f
                Exponent: 65537 (0x10001)
        X509v3 extensions:
            X509v3 Basic Constraints: 
                CA:FALSE
            Netscape Comment: 
                OpenSSL Generated Certificate
            X509v3 Subject Key Identifier: 
                04:05:3D:6A:A7:E8:D7:52:BD:2F:C4:52:30:7C:2C:BD:D3:81:46:C6
            X509v3 Authority Key Identifier: 
                keyid:AD:64:45:74:8F:83:C7:2C:D5:D7:A0:85:91:10:40:9A:9C:96:CF:EE

    Signature Algorithm: sha1WithRSAEncryption
        ac:2b:ad:86:36:96:5c:fb:34:2c:02:ca:d9:5f:a7:8e:b6:58:
        24:1d:27:b6:8e:81:aa:69:0e:60:26:64:2e:72:a1:ff:d8:ba:
        bb:7e:5d:46:c7:07:2d:a8:c8:4c:df:1e:ba:c8:bc:21:5b:f2:
        b3:01:4c:d6:3b:10:fd:49:70:e6:83:01:f3:24:e2:a9:97:d7:
        c3:9c:5b:2d:d7:64:2b:e5:e2:0e:3e:d9:8c:e6:93:86:39:32:
        50:43:5f:36:4a:3b:b0:05:e7:65:a3:b3:ef:50:56:7f:7e:dc:
        f0:65:83:ac:42:7e:97:a0:c0:7e:63:c6:c8:c6:35:d3:60:d1:
        4f:51
-----BEGIN CERTIFICATE-----
MIICkTCCAfqgAwIBAgIJANG2v68GF4y+MA0GCSqGSIb3DQEBBQUAME8xCzAJBgNV
BAYTAlVTMRMwEQYDVQQIEwpDYWxpZm9ybmlhMREwDwYDVQQKEwhNMkNyeXB0bzEY
MBYGA1UEAxMPSGVpa2tpIFRvaXZvbmVuMB4XDTA5MDcyODA0MzE0MVoXDTE5MDcy
NjA0MzE0MVowSTELMAkGA1UEBhMCVVMxEzARBgNVBAgTCkNhbGlmb3JuaWExETAP
BgNVBAoTCE0yQ3J5cHRvMRIwEAYDVQQDEwlsb2NhbGhvc3QwgZ8wDQYJKoZIhvcN
AQEBBQADgY0AMIGJAoGBANSZbzM/5qwKNNgORZfzK2pQKoQwClKcFTCfBSk6IfTB
wwGeL1VWTjWs8RYeJo21JreZeJLqHHRGq0ES78xTYsxZXJ7Eht/ZJTVVBUsW/9mQ
4/RRtLT6xZhLYPBgfxROHt1hmyKinCEXQ6PLB4D1dVmcVRz+4GbUcHdeEwYMBccf
AgMBAAGjezB5MAkGA1UdEwQCMAAwLAYJYIZIAYb4QgENBB8WHU9wZW5TU0wgR2Vu
ZXJhdGVkIENlcnRpZmljYXRlMB0GA1UdDgQWBBQEBT1qp+jXUr0vxFIwfCy904FG
xjAfBgNVHSMEGDAWgBStZEV0j4PHLNXXoIWREECanJbP7jANBgkqhkiG9w0BAQUF
AAOBgQCsK62GNpZc+zQsAsrZX6eOtlgkHSe2joGqaQ5gJmQucqH/2Lq7fl1Gxwct
qMhM3x66yLwhW/KzAUzWOxD9SXDmgwHzJOKpl9fDnFst12Qr5eIOPtmM5pOGOTJQ
Q182SjuwBedlo7PvUFZ/ftzwZYOsQn6XoMB+Y8bIxjXTYNFPUQ==
-----END CERTIFICATE-----
-----BEGIN RSA PRIVATE KEY-----
MIICXgIBAAKBgQDUmW8zP+asCjTYDkWX8ytqUCqEMApSnBUwnwUpOiH0wcMBni9V
Vk41rPEWHiaNtSa3mXiS6hx0RqtBEu/MU2LMWVyexIbf2SU1VQVLFv/ZkOP0UbS0
+sWYS2DwYH8UTh7dYZsiopwhF0OjyweA9XVZnFUc/uBm1HB3XhMGDAXHHwIDAQAB
AoGBALBHrSm8kYMTT2/anZ/5tIUJhcdnohePbg6LvJbLqf4tb4l25V6IGn9tL9Yc
F/GmRD02VwDSd9d+BWAG2Kj+d0rfdCLfKY9O8PVVm0DF6grLZ7ugItYqUHRDYOdV
MOVOQrx+mCIzHtoEtQ6HLqmqt2rIX731L1TA7OLNm3XHyISJAkEA/mgNNNg0e23G
64z83yxxwPEnBrnKd1+xjH9QJ0Z9SJJuF4sNXRIFA4YUNvv2MNe3gMS4Hg9w78HL
PwcEzLnO9QJBANXuWAZGV58CdkM2w7H9+ukxMbQeLSnmgjpdddo31qqbfgFAYZMK
LppRqyosj+a2qQ6vua0ndstTImSi7KPmCUMCQQDbwr5Fu836ISYIK830aswIw0fX
A37mB3+zwfZXNwjaO8NmCvQMRZiXJqcnqBdOsckOLuBs9yGzuk/7rfBzeL5RAkA2
uBcly7o/vsZ3HLvjfB5ApUecVZehvwcSXLN3VI8A5nLNaSVMEe+nozoPuIQ6NAB7
9DCe/JgjG6mRaibzKTS3AkEAjTl5MTKkYR78+2u3NRU/ypa1iKCicSvI/Ryw7p/z
Q8XmVA0CmNRvltf9gA1gJ04ZijBPtl+s09uppaCw9L3vuA==
-----END RSA PRIVATE KEY-----
